; Function Attrs: mustprogress nofree norecurse nosync nounwind willreturn memory(argmem: readwrite) uwtable
define void @_ZN3gmx11QMMMOptions9setLoggerERKNS_8MDLoggerE(ptr nocapture noundef nonnull align 8 dereferenceable(824) %0, ptr noundef nonnull align 8 dereferenceable(40) %1) local_unnamed_addr #17 align 2 {
  %3 = getelementptr inbounds i8, ptr %0, i64 504
  %4 = load i8, ptr %3, align 8
  %5 = trunc i8 %4 to i1
  br i1 %5, label %6, label %8

6:                                                ; preds = %2
  %7 = getelementptr inbounds i8, ptr %0, i64 456
  store ptr %1, ptr %7, align 8
  br label %8

8:                                                ; preds = %2, %6
  ret void
}